target datalayout = "e-m:e-p270:32:32-p271:32:32-p272:64:64-i64:64-i128:128-f80:128-n8:16:32:64-S128"
target triple = "x86_64-unknown-linux-gnu"

%struct.QEMULogItem = type { i32, ptr, ptr }

@.str.51 = private unnamed_addr constant [30 x i8] c"Log items (comma separated):\0A\00", align 1
@.str.52 = private unnamed_addr constant [10 x i8] c"%-15s %s\0A\00", align 1
@.str.53 = private unnamed_addr constant [37 x i8] c"trace:PATTERN   enable trace events\0A\00", align 1
@.str.54 = private unnamed_addr constant [54 x i8] c"\0AUse \22-d trace:help\22 to get a list of trace events.\0A\0A\00", align 1

; Function Attrs: nounwind sspstrong uwtable
define dso_local void @qemu_print_log_usage(ptr noundef %f) #0 {
entry:
  %f.addr = alloca ptr, align 8
  %item = alloca ptr, align 8
  store ptr %f, ptr %f.addr, align 8
  %0 = load ptr, ptr %f.addr, align 8
  %call = call i32 (ptr, ptr, ...) @fprintf(ptr noundef %0, ptr noundef @.str.51)
  store ptr @qemu_log_items, ptr %item, align 8
  br label %for.cond

for.cond:                                         ; preds = %for.inc, %entry
  %1 = load ptr, ptr %item, align 8
  %mask = getelementptr inbounds %struct.QEMULogItem, ptr %1, i32 0, i32 0
  %2 = load i32, ptr %mask, align 8
  %cmp = icmp ne i32 %2, 0
  br i1 %cmp, label %for.body, label %for.end

for.body:                                         ; preds = %for.cond
  %3 = load ptr, ptr %f.addr, align 8
  %4 = load ptr, ptr %item, align 8
  %name = getelementptr inbounds %struct.QEMULogItem, ptr %4, i32 0, i32 1
  %5 = load ptr, ptr %name, align 8
  %6 = load ptr, ptr %item, align 8
  %help = getelementptr inbounds %struct.QEMULogItem, ptr %6, i32 0, i32 2
  %7 = load ptr, ptr %help, align 8
  %call1 = call i32 (ptr, ptr, ...) @fprintf(ptr noundef %3, ptr noundef @.str.52, ptr noundef %5, ptr noundef %7)
  br label %for.inc

for.inc:                                          ; preds = %for.body
  %8 = load ptr, ptr %item, align 8
  %incdec.ptr = getelementptr %struct.QEMULogItem, ptr %8, i32 1
  store ptr %incdec.ptr, ptr %item, align 8
  br label %for.cond, !llvm.loop !13

for.end:                                          ; preds = %for.cond
  %9 = load ptr, ptr %f.addr, align 8
  %call2 = call i32 (ptr, ptr, ...) @fprintf(ptr noundef %9, ptr noundef @.str.53)
  %10 = load ptr, ptr %f.addr, align 8
  %call3 = call i32 (ptr, ptr, ...) @fprintf(ptr noundef %10, ptr noundef @.str.54)
  ret void
}