; Function Attrs: nofree nounwind sspstrong uwtable
define dso_local void @qemu_print_log_usage(ptr noundef captures(none) %f) local_unnamed_addr #7 {
entry:
  %0 = tail call i64 @fwrite(ptr nonnull @.str.51, i64 29, i64 1, ptr %f)
  br label %for.body

for.body:                                         ; preds = %entry, %for.body
  %item.07 = phi ptr [ @qemu_log_items, %entry ], [ %incdec.ptr, %for.body ]
  %name = getelementptr inbounds nuw i8, ptr %item.07, i64 8
  %1 = load ptr, ptr %name, align 8
  %help = getelementptr inbounds nuw i8, ptr %item.07, i64 16
  %2 = load ptr, ptr %help, align 8
  %call1 = tail call i32 (ptr, ptr, ...) @fprintf(ptr noundef %f, ptr noundef nonnull @.str.52, ptr noundef %1, ptr noundef %2)
  %incdec.ptr = getelementptr i8, ptr %item.07, i64 24
  %3 = load i32, ptr %incdec.ptr, align 8
  %cmp.not = icmp eq i32 %3, 0
  br i1 %cmp.not, label %for.end, label %for.body, !llvm.loop !14

for.end:                                          ; preds = %for.body
  %4 = tail call i64 @fwrite(ptr nonnull @.str.53, i64 36, i64 1, ptr %f)
  %5 = tail call i64 @fwrite(ptr nonnull @.str.54, i64 53, i64 1, ptr %f)
  ret void
}